target datalayout = "e-m:e-p270:32:32-p271:32:32-p272:64:64-i64:64-i128:128-f80:128-n8:16:32:64-S128"
target triple = "x86_64-pc-linux-gnu"

%struct.PLpgSQL_execstate = type { ptr, ptr, ptr, i64, i8, i32, i32, i8, i8, i8, i8, ptr, ptr, ptr, ptr, ptr, ptr, ptr, i32, i32, ptr, ptr, ptr, ptr, ptr, ptr, ptr, ptr, ptr, ptr, i64, ptr, ptr, ptr, ptr, ptr }
%struct.PLpgSQL_datum = type { i32, i32 }
%struct.PLpgSQL_var = type { i32, i32, ptr, i32, i8, i8, ptr, ptr, ptr, i32, i32, i64, i8, i8, i32 }
%struct.PLpgSQL_type = type { ptr, i32, i32, i16, i8, i8, i32, i8, i32, ptr, ptr, i64 }
%struct.PLpgSQL_rec = type { i32, i32, ptr, i32, i8, i8, ptr, ptr, i32, i32, ptr }
%struct.ExpandedRecordHeader = type { %struct.ExpandedObjectHeader, i32, i32, i32, i32, i32, ptr, i64, ptr, ptr, i32, i64, i64, i32, i8, ptr, ptr, ptr, ptr, ptr, ptr, %struct.MemoryContextCallback }
%struct.ExpandedObjectHeader = type { i32, ptr, ptr, [10 x i8], [10 x i8] }
%struct.MemoryContextCallback = type { ptr, ptr, ptr }
%struct.PLpgSQL_recfield = type { i32, i32, ptr, i32, i32, i64, %struct.ExpandedRecordFieldInfo }
%struct.ExpandedRecordFieldInfo = type { i32, i32, i32, i32 }

@.str.2 = private unnamed_addr constant [11 x i8] c"plpgsql-18\00", align 1
@.str.3 = private unnamed_addr constant [23 x i8] c"unrecognized dtype: %d\00", align 1
@.str.4 = private unnamed_addr constant [10 x i8] c"pl_exec.c\00", align 1
@.str.16 = private unnamed_addr constant [30 x i8] c"record \22%s\22 has no field \22%s\22\00", align 1
@__func__.plpgsql_exec_get_datum_type_info = private unnamed_addr constant [33 x i8] c"plpgsql_exec_get_datum_type_info\00", align 1

; Function Attrs: nounwind uwtable
define hidden void @plpgsql_exec_get_datum_type_info(ptr noundef %0, ptr noundef %1, ptr noundef %2, ptr noundef %3, ptr noundef %4) #0 {
  %6 = alloca ptr, align 8
  %7 = alloca ptr, align 8
  %8 = alloca ptr, align 8
  %9 = alloca ptr, align 8
  %10 = alloca ptr, align 8
  %11 = alloca ptr, align 8
  %12 = alloca ptr, align 8
  %13 = alloca ptr, align 8
  %14 = alloca ptr, align 8
  store ptr %0, ptr %6, align 8
  store ptr %1, ptr %7, align 8
  store ptr %2, ptr %8, align 8
  store ptr %3, ptr %9, align 8
  store ptr %4, ptr %10, align 8
  %15 = load ptr, ptr %7, align 8
  %16 = getelementptr inbounds nuw %struct.PLpgSQL_datum, ptr %15, i32 0, i32 0
  %17 = load i32, ptr %16, align 4
  switch i32 %17, label %151 [
    i32 0, label %18
    i32 4, label %18
    i32 2, label %38
    i32 3, label %65
  ]

18:                                               ; preds = %5, %5
  call void @llvm.lifetime.start.p0(i64 8, ptr %11) #12
  %19 = load ptr, ptr %7, align 8
  store ptr %19, ptr %11, align 8
  %20 = load ptr, ptr %11, align 8
  %21 = getelementptr inbounds nuw %struct.PLpgSQL_var, ptr %20, i32 0, i32 7
  %22 = load ptr, ptr %21, align 8
  %23 = getelementptr inbounds nuw %struct.PLpgSQL_type, ptr %22, i32 0, i32 1
  %24 = load i32, ptr %23, align 8
  %25 = load ptr, ptr %8, align 8
  store i32 %24, ptr %25, align 4
  %26 = load ptr, ptr %11, align 8
  %27 = getelementptr inbounds nuw %struct.PLpgSQL_var, ptr %26, i32 0, i32 7
  %28 = load ptr, ptr %27, align 8
  %29 = getelementptr inbounds nuw %struct.PLpgSQL_type, ptr %28, i32 0, i32 8
  %30 = load i32, ptr %29, align 4
  %31 = load ptr, ptr %9, align 8
  store i32 %30, ptr %31, align 4
  %32 = load ptr, ptr %11, align 8
  %33 = getelementptr inbounds nuw %struct.PLpgSQL_var, ptr %32, i32 0, i32 7
  %34 = load ptr, ptr %33, align 8
  %35 = getelementptr inbounds nuw %struct.PLpgSQL_type, ptr %34, i32 0, i32 6
  %36 = load i32, ptr %35, align 4
  %37 = load ptr, ptr %10, align 8
  store i32 %36, ptr %37, align 4
  call void @llvm.lifetime.end.p0(i64 8, ptr %11) #12
  br label %167

38:                                               ; preds = %5
  call void @llvm.lifetime.start.p0(i64 8, ptr %12) #12
  %39 = load ptr, ptr %7, align 8
  store ptr %39, ptr %12, align 8
  %40 = load ptr, ptr %12, align 8
  %41 = getelementptr inbounds nuw %struct.PLpgSQL_rec, ptr %40, i32 0, i32 10
  %42 = load ptr, ptr %41, align 8
  %43 = icmp eq ptr %42, null
  br i1 %43, label %49, label %44

44:                                               ; preds = %38
  %45 = load ptr, ptr %12, align 8
  %46 = getelementptr inbounds nuw %struct.PLpgSQL_rec, ptr %45, i32 0, i32 8
  %47 = load i32, ptr %46, align 8
  %48 = icmp ne i32 %47, 2249
  br i1 %48, label %49, label %55

49:                                               ; preds = %44, %38
  %50 = load ptr, ptr %12, align 8
  %51 = getelementptr inbounds nuw %struct.PLpgSQL_rec, ptr %50, i32 0, i32 8
  %52 = load i32, ptr %51, align 8
  %53 = load ptr, ptr %8, align 8
  store i32 %52, ptr %53, align 4
  %54 = load ptr, ptr %9, align 8
  store i32 -1, ptr %54, align 4
  br label %63

55:                                               ; preds = %44
  %56 = load ptr, ptr %12, align 8
  %57 = getelementptr inbounds nuw %struct.PLpgSQL_rec, ptr %56, i32 0, i32 10
  %58 = load ptr, ptr %57, align 8
  %59 = getelementptr inbounds nuw %struct.ExpandedRecordHeader, ptr %58, i32 0, i32 4
  %60 = load i32, ptr %59, align 4
  %61 = load ptr, ptr %8, align 8
  store i32 %60, ptr %61, align 4
  %62 = load ptr, ptr %9, align 8
  store i32 -1, ptr %62, align 4
  br label %63

63:                                               ; preds = %55, %49
  %64 = load ptr, ptr %10, align 8
  store i32 0, ptr %64, align 4
  call void @llvm.lifetime.end.p0(i64 8, ptr %12) #12
  br label %167

65:                                               ; preds = %5
  call void @llvm.lifetime.start.p0(i64 8, ptr %13) #12
  %66 = load ptr, ptr %7, align 8
  store ptr %66, ptr %13, align 8
  call void @llvm.lifetime.start.p0(i64 8, ptr %14) #12
  %67 = load ptr, ptr %6, align 8
  %68 = getelementptr inbounds nuw %struct.PLpgSQL_execstate, ptr %67, i32 0, i32 20
  %69 = load ptr, ptr %68, align 8
  %70 = load ptr, ptr %13, align 8
  %71 = getelementptr inbounds nuw %struct.PLpgSQL_recfield, ptr %70, i32 0, i32 3
  %72 = load i32, ptr %71, align 8
  %73 = sext i32 %72 to i64
  %74 = getelementptr inbounds ptr, ptr %69, i64 %73
  %75 = load ptr, ptr %74, align 8
  store ptr %75, ptr %14, align 8
  %76 = load ptr, ptr %14, align 8
  %77 = getelementptr inbounds nuw %struct.PLpgSQL_rec, ptr %76, i32 0, i32 10
  %78 = load ptr, ptr %77, align 8
  %79 = icmp eq ptr %78, null
  br i1 %79, label %80, label %83

80:                                               ; preds = %65
  %81 = load ptr, ptr %6, align 8
  %82 = load ptr, ptr %14, align 8
  call void @instantiate_empty_record_variable(ptr noundef %81, ptr noundef %82)
  br label %83

83:                                               ; preds = %80, %65
  %84 = load ptr, ptr %13, align 8
  %85 = getelementptr inbounds nuw %struct.PLpgSQL_recfield, ptr %84, i32 0, i32 5
  %86 = load i64, ptr %85, align 8
  %87 = load ptr, ptr %14, align 8
  %88 = getelementptr inbounds nuw %struct.PLpgSQL_rec, ptr %87, i32 0, i32 10
  %89 = load ptr, ptr %88, align 8
  %90 = getelementptr inbounds nuw %struct.ExpandedRecordHeader, ptr %89, i32 0, i32 7
  %91 = load i64, ptr %90, align 8
  %92 = icmp ne i64 %86, %91
  %93 = zext i1 %92 to i32
  %94 = icmp ne i32 %93, 0
  %95 = zext i1 %94 to i32
  %96 = sext i32 %95 to i64
  %97 = call i64 @llvm.expect.i64(i64 %96, i64 0)
  %98 = icmp ne i64 %97, 0
  br i1 %98, label %99, label %135

99:                                               ; preds = %83
  %100 = load ptr, ptr %14, align 8
  %101 = getelementptr inbounds nuw %struct.PLpgSQL_rec, ptr %100, i32 0, i32 10
  %102 = load ptr, ptr %101, align 8
  %103 = load ptr, ptr %13, align 8
  %104 = getelementptr inbounds nuw %struct.PLpgSQL_recfield, ptr %103, i32 0, i32 2
  %105 = load ptr, ptr %104, align 8
  %106 = load ptr, ptr %13, align 8
  %107 = getelementptr inbounds nuw %struct.PLpgSQL_recfield, ptr %106, i32 0, i32 6
  %108 = call zeroext i1 @expanded_record_lookup_field(ptr noundef %102, ptr noundef %105, ptr noundef %107)
  br i1 %108, label %127, label %109

109:                                              ; preds = %99
  br label %110

110:                                              ; preds = %109
  br i1 true, label %111, label %113

111:                                              ; preds = %110
  %112 = call zeroext i1 @errstart_cold(i32 noundef 21, ptr noundef @.str.2) #13
  br i1 %112, label %115, label %124

113:                                              ; preds = %110
  %114 = call zeroext i1 @errstart(i32 noundef 21, ptr noundef @.str.2)
  br i1 %114, label %115, label %124

115:                                              ; preds = %113, %111
  %116 = call i32 @errcode(i32 noundef 50360452)
  %117 = load ptr, ptr %14, align 8
  %118 = getelementptr inbounds nuw %struct.PLpgSQL_rec, ptr %117, i32 0, i32 2
  %119 = load ptr, ptr %118, align 8
  %120 = load ptr, ptr %13, align 8
  %121 = getelementptr inbounds nuw %struct.PLpgSQL_recfield, ptr %120, i32 0, i32 2
  %122 = load ptr, ptr %121, align 8
  %123 = call i32 (ptr, ...) @errmsg(ptr noundef @.str.16, ptr noundef %119, ptr noundef %122)
  call void @errfinish(ptr noundef @.str.4, i32 noundef 5604, ptr noundef @__func__.plpgsql_exec_get_datum_type_info)
  br label %124

124:                                              ; preds = %115, %113, %111
  unreachable

125:                                              ; No predecessors!
  br label %126

126:                                              ; preds = %125
  br label %127

127:                                              ; preds = %126, %99
  %128 = load ptr, ptr %14, align 8
  %129 = getelementptr inbounds nuw %struct.PLpgSQL_rec, ptr %128, i32 0, i32 10
  %130 = load ptr, ptr %129, align 8
  %131 = getelementptr inbounds nuw %struct.ExpandedRecordHeader, ptr %130, i32 0, i32 7
  %132 = load i64, ptr %131, align 8
  %133 = load ptr, ptr %13, align 8
  %134 = getelementptr inbounds nuw %struct.PLpgSQL_recfield, ptr %133, i32 0, i32 5
  store i64 %132, ptr %134, align 8
  br label %135

135:                                              ; preds = %127, %83
  %136 = load ptr, ptr %13, align 8
  %137 = getelementptr inbounds nuw %struct.PLpgSQL_recfield, ptr %136, i32 0, i32 6
  %138 = getelementptr inbounds nuw %struct.ExpandedRecordFieldInfo, ptr %137, i32 0, i32 1
  %139 = load i32, ptr %138, align 4
  %140 = load ptr, ptr %8, align 8
  store i32 %139, ptr %140, align 4
  %141 = load ptr, ptr %13, align 8
  %142 = getelementptr inbounds nuw %struct.PLpgSQL_recfield, ptr %141, i32 0, i32 6
  %143 = getelementptr inbounds nuw %struct.ExpandedRecordFieldInfo, ptr %142, i32 0, i32 2
  %144 = load i32, ptr %143, align 8
  %145 = load ptr, ptr %9, align 8
  store i32 %144, ptr %145, align 4
  %146 = load ptr, ptr %13, align 8
  %147 = getelementptr inbounds nuw %struct.PLpgSQL_recfield, ptr %146, i32 0, i32 6
  %148 = getelementptr inbounds nuw %struct.ExpandedRecordFieldInfo, ptr %147, i32 0, i32 3
  %149 = load i32, ptr %148, align 4
  %150 = load ptr, ptr %10, align 8
  store i32 %149, ptr %150, align 4
  call void @llvm.lifetime.end.p0(i64 8, ptr %14) #12
  call void @llvm.lifetime.end.p0(i64 8, ptr %13) #12
  br label %167

151:                                              ; preds = %5
  br label %152

152:                                              ; preds = %151
  br i1 true, label %153, label %155

153:                                              ; preds = %152
  %154 = call zeroext i1 @errstart_cold(i32 noundef 21, ptr noundef @.str.2) #13
  br i1 %154, label %157, label %162

155:                                              ; preds = %152
  %156 = call zeroext i1 @errstart(i32 noundef 21, ptr noundef @.str.2)
  br i1 %156, label %157, label %162

157:                                              ; preds = %155, %153
  %158 = load ptr, ptr %7, align 8
  %159 = getelementptr inbounds nuw %struct.PLpgSQL_datum, ptr %158, i32 0, i32 0
  %160 = load i32, ptr %159, align 4
  %161 = call i32 (ptr, ...) @errmsg_internal(ptr noundef @.str.3, i32 noundef %160)
  call void @errfinish(ptr noundef @.str.4, i32 noundef 5615, ptr noundef @__func__.plpgsql_exec_get_datum_type_info)
  br label %162

162:                                              ; preds = %157, %155, %153
  unreachable

163:                                              ; No predecessors!
  %164 = load ptr, ptr %8, align 8
  store i32 0, ptr %164, align 4
  %165 = load ptr, ptr %9, align 8
  store i32 -1, ptr %165, align 4
  %166 = load ptr, ptr %10, align 8
  store i32 0, ptr %166, align 4
  br label %167

167:                                              ; preds = %163, %135, %63, %18
  ret void
}