; Function Attrs: nounwind uwtable
define hidden void @plpgsql_exec_get_datum_type_info(ptr noundef readonly captures(none) %0, ptr noundef %1, ptr noundef writeonly captures(none) %2, ptr noundef writeonly captures(none) %3, ptr noundef writeonly captures(none) %4) local_unnamed_addr #0 {
  %6 = load i32, ptr %1, align 4
  switch i32 %6, label %71 [
    i32 0, label %7
    i32 4, label %7
    i32 2, label %18
    i32 3, label %30
  ]

7:                                                ; preds = %5, %5
  %8 = getelementptr inbounds nuw i8, ptr %1, i64 32
  %9 = load ptr, ptr %8, align 8
  %10 = getelementptr inbounds nuw i8, ptr %9, i64 8
  %11 = load i32, ptr %10, align 8
  store i32 %11, ptr %2, align 4
  %12 = load ptr, ptr %8, align 8
  %13 = getelementptr inbounds nuw i8, ptr %12, i64 28
  %14 = load i32, ptr %13, align 4
  store i32 %14, ptr %3, align 4
  %15 = load ptr, ptr %8, align 8
  %16 = getelementptr inbounds nuw i8, ptr %15, i64 20
  %17 = load i32, ptr %16, align 4
  br label %75

18:                                               ; preds = %5
  %19 = getelementptr inbounds nuw i8, ptr %1, i64 48
  %20 = load ptr, ptr %19, align 8
  %21 = icmp eq ptr %20, null
  br i1 %21, label %25, label %22

22:                                               ; preds = %18
  %23 = getelementptr inbounds nuw i8, ptr %1, i64 40
  %24 = load i32, ptr %23, align 8
  %.not40 = icmp eq i32 %24, 2249
  br i1 %.not40, label %27, label %25

25:                                               ; preds = %22, %18
  %26 = getelementptr inbounds nuw i8, ptr %1, i64 40
  br label %29

27:                                               ; preds = %22
  %28 = getelementptr inbounds nuw i8, ptr %20, i64 60
  br label %29

29:                                               ; preds = %27, %25
  %storemerge.in = phi ptr [ %28, %27 ], [ %26, %25 ]
  %storemerge = load i32, ptr %storemerge.in, align 4
  store i32 %storemerge, ptr %2, align 4
  store i32 -1, ptr %3, align 4
  br label %75

30:                                               ; preds = %5
  %31 = getelementptr inbounds nuw i8, ptr %0, i64 112
  %32 = load ptr, ptr %31, align 8
  %33 = getelementptr inbounds nuw i8, ptr %1, i64 16
  %34 = load i32, ptr %33, align 8
  %35 = sext i32 %34 to i64
  %36 = getelementptr inbounds ptr, ptr %32, i64 %35
  %37 = load ptr, ptr %36, align 8
  %38 = getelementptr inbounds nuw i8, ptr %37, i64 48
  %39 = load ptr, ptr %38, align 8
  %40 = icmp eq ptr %39, null
  br i1 %40, label %41, label %42

41:                                               ; preds = %30
  tail call fastcc void @instantiate_empty_record_variable(ptr noundef nonnull %0, ptr noundef nonnull %37)
  %.pre = load ptr, ptr %38, align 8
  br label %42

42:                                               ; preds = %41, %30
  %43 = phi ptr [ %.pre, %41 ], [ %39, %30 ]
  %44 = getelementptr inbounds nuw i8, ptr %1, i64 24
  %45 = load i64, ptr %44, align 8
  %46 = getelementptr inbounds nuw i8, ptr %43, i64 80
  %47 = load i64, ptr %46, align 8
  %.not = icmp eq i64 %45, %47
  br i1 %.not, label %64, label %48, !prof !7

48:                                               ; preds = %42
  %49 = getelementptr inbounds nuw i8, ptr %1, i64 8
  %50 = load ptr, ptr %49, align 8
  %51 = getelementptr inbounds nuw i8, ptr %1, i64 32
  %52 = tail call zeroext i1 @expanded_record_lookup_field(ptr noundef nonnull %43, ptr noundef %50, ptr noundef nonnull %51) #12
  br i1 %52, label %60, label %53

53:                                               ; preds = %48
  %54 = tail call zeroext i1 @errstart_cold(i32 noundef 21, ptr noundef nonnull @.str.2) #13
  tail call void @llvm.assume(i1 %54)
  %55 = tail call i32 @errcode(i32 noundef 50360452) #12
  %56 = getelementptr inbounds nuw i8, ptr %37, i64 8
  %57 = load ptr, ptr %56, align 8
  %58 = load ptr, ptr %49, align 8
  %59 = tail call i32 (ptr, ...) @errmsg(ptr noundef nonnull @.str.16, ptr noundef %57, ptr noundef %58) #12
  tail call void @errfinish(ptr noundef nonnull @.str.4, i32 noundef 5604, ptr noundef nonnull @__func__.plpgsql_exec_get_datum_type_info) #12
  unreachable

60:                                               ; preds = %48
  %61 = load ptr, ptr %38, align 8
  %62 = getelementptr inbounds nuw i8, ptr %61, i64 80
  %63 = load i64, ptr %62, align 8
  store i64 %63, ptr %44, align 8
  br label %64

64:                                               ; preds = %60, %42
  %65 = getelementptr inbounds nuw i8, ptr %1, i64 36
  %66 = load i32, ptr %65, align 4
  store i32 %66, ptr %2, align 4
  %67 = getelementptr inbounds nuw i8, ptr %1, i64 40
  %68 = load i32, ptr %67, align 8
  store i32 %68, ptr %3, align 4
  %69 = getelementptr inbounds nuw i8, ptr %1, i64 44
  %70 = load i32, ptr %69, align 4
  br label %75

71:                                               ; preds = %5
  %72 = tail call zeroext i1 @errstart_cold(i32 noundef 21, ptr noundef nonnull @.str.2) #13
  tail call void @llvm.assume(i1 %72)
  %73 = load i32, ptr %1, align 4
  %74 = tail call i32 (ptr, ...) @errmsg_internal(ptr noundef nonnull @.str.3, i32 noundef %73) #12
  tail call void @errfinish(ptr noundef nonnull @.str.4, i32 noundef 5615, ptr noundef nonnull @__func__.plpgsql_exec_get_datum_type_info) #12
  unreachable

75:                                               ; preds = %64, %29, %7
  %.sink = phi i32 [ %70, %64 ], [ 0, %29 ], [ %17, %7 ]
  store i32 %.sink, ptr %4, align 4
  ret void
}